Certificate:
    Data:
        Version: 3 (0x2)
        Serial Number:
            8f:48:f8:a8:56:e4:f3:79
    Signature Algorithm: sha256WithRSAEncryption
        Issuer: C=CN, ST=BJ, O=zkhonry.com, OU=zkhonry, CN=zkhonry.com
        Validity
            Not Before: Oct 10 08:57:26 2018 GMT
            Not After : Oct  9 08:57:26 2021 GMT
        Subject: C=CN, ST=BJ, O=zkhonry.com, OU=zkhonry, CN=zkhonry.com
        Subject Public Key Info:
            Public Key Algorithm: rsaEncryption
                Public-Key: (2048 bit)
                Modulus:
                    00:da:04:79:5a:ca:fb:10:c7:6b:7c:29:70:4f:5e:
                    47:87:83:d0:90:01:b6:4a:ca:53:06:d7:0b:e4:bd:
                    10:a7:9d:18:57:9c:29:5e:44:dd:54:97:5d:11:fd:
                    34:4f:3a:f0:09:21:9a:01:73:39:c4:03:b3:63:3b:
                    23:b3:e7:02:85:c9:dc:f3:ea:f5:08:c8:3b:58:fa:
                    b2:ea:0b:ba:20:32:2c:20:9b:6c:6a:8f:ba:87:4f:
                    a6:4d:3c:c4:c0:b5:6b:c8:77:98:1c:3c:bd:b5:6f:
                    c5:52:4a:fb:8d:ca:c5:d7:0a:7c:b6:10:77:e9:2d:
                    da:cf:d2:01:6e:7f:9c:f9:9f:58:da:ec:2f:64:46:
                    b5:3d:81:3b:74:6f:41:ce:3e:e6:57:2f:80:9b:6c:
                    76:b7:08:08:ed:4e:e6:2e:39:68:ff:2d:44:ae:de:
                    b7:3c:4a:14:3c:72:31:9d:b1:53:b5:5e:af:8c:30:
                    88:f3:b9:b6:b9:b7:6d:0d:1c:f7:89:c8:5b:9f:05:
                    ca:f1:22:d4:24:36:78:e6:97:56:59:f3:9c:58:a5:
                    cf:f8:d7:7b:d1:8b:9b:bb:e3:cb:94:2c:ce:8f:ae:
                    13:7c:1c:2a:38:ce:54:1d:04:f6:e4:5d:71:b8:5e:
                    73:99:3b:46:1b:21:f0:6f:98:01:b3:df:8d:3e:9f:
                    ce:21
                Exponent: 65537 (0x10001)
        X509v3 extensions:
            X509v3 Subject Key Identifier: 
                9B:12:61:D1:8D:20:63:EA:11:D6:9B:4F:14:FE:51:14:08:50:30:3F
            X509v3 Authority Key Identifier: 
                keyid:9B:12:61:D1:8D:20:63:EA:11:D6:9B:4F:14:FE:51:14:08:50:30:3F

            X509v3 Basic Constraints: 
                CA:TRUE
    Signature Algorithm: sha256WithRSAEncryption
         ac:c1:d4:78:b1:fd:44:8a:de:60:e0:83:b0:ea:75:f2:50:92:
         96:73:4f:98:36:34:4b:1f:b0:58:c9:74:54:c9:42:29:b4:ca:
         90:7e:9c:b5:66:b9:9a:d1:3a:ab:c0:77:93:13:6d:66:f1:3a:
         c1:f9:d2:c5:07:90:65:8a:f4:90:28:91:b2:cb:c8:d0:73:d7:
         55:fd:36:54:eb:ee:d0:b6:b7:cd:cd:46:c2:a3:c7:8e:ed:16:
         eb:c0:24:0f:24:4f:5b:dc:4e:b0:f2:e0:c9:21:b8:60:c2:d8:
         47:2c:eb:41:93:9d:71:11:4d:2a:a2:14:4d:93:4a:1c:a8:2e:
         ba:2e:36:96:68:79:eb:d3:90:39:89:80:c5:c5:86:14:59:8b:
         86:42:ce:00:30:04:93:84:9b:24:79:ad:8c:62:56:25:c3:63:
         7f:93:f7:81:c5:b8:a3:63:4e:da:09:4a:a9:49:8f:16:cc:be:
         90:6b:f8:85:42:93:33:e5:5c:8a:43:66:df:e1:43:a4:ae:af:
         0f:3b:37:bc:f4:ce:72:d9:66:58:f8:b0:9f:a6:59:1f:08:04:
         df:b4:5d:3f:31:05:52:84:53:64:d5:9e:fd:d2:8e:09:fe:83:
         65:77:b5:7d:1c:34:a9:33:fe:75:00:ef:5f:57:6d:cf:c1:bc:
         08:08:be:86
-----BEGIN CERTIFICATE-----
MIIDgzCCAmugAwIBAgIJAI9I+KhW5PN5MA0GCSqGSIb3DQEBCwUAMFgxCzAJBgNV
BAYTAkNOMQswCQYDVQQIDAJCSjEUMBIGA1UECgwLemtob25yeS5jb20xEDAOBgNV
BAsMB3praG9ucnkxFDASBgNVBAMMC3praG9ucnkuY29tMB4XDTE4MTAxMDA4NTcy
NloXDTIxMTAwOTA4NTcyNlowWDELMAkGA1UEBhMCQ04xCzAJBgNVBAgMAkJKMRQw
EgYDVQQKDAt6a2hvbnJ5LmNvbTEQMA4GA1UECwwHemtob25yeTEUMBIGA1UEAwwL
emtob25yeS5jb20wggEiMA0GCSqGSIb3DQEBAQUAA4IBDwAwggEKAoIBAQDaBHla
yvsQx2t8KXBPXkeHg9CQAbZKylMG1wvkvRCnnRhXnCleRN1Ul10R/TRPOvAJIZoB
cznEA7NjOyOz5wKFydzz6vUIyDtY+rLqC7ogMiwgm2xqj7qHT6ZNPMTAtWvId5gc
PL21b8VSSvuNysXXCny2EHfpLdrP0gFuf5z5n1ja7C9kRrU9gTt0b0HOPuZXL4Cb
bHa3CAjtTuYuOWj/LUSu3rc8ShQ8cjGdsVO1Xq+MMIjzuba5t20NHPeJyFufBcrx
ItQkNnjml1ZZ85xYpc/413vRi5u748uULM6PrhN8HCo4zlQdBPbkXXG4XnOZO0Yb
IfBvmAGz340+n84hAgMBAAGjUDBOMB0GA1UdDgQWBBSbEmHRjSBj6hHWm08U/lEU
CFAwPzAfBgNVHSMEGDAWgBSbEmHRjSBj6hHWm08U/lEUCFAwPzAMBgNVHRMEBTAD
AQH/MA0GCSqGSIb3DQEBCwUAA4IBAQCswdR4sf1Eit5g4IOw6nXyUJKWc0+YNjRL
H7BYyXRUyUIptMqQfpy1Zrma0TqrwHeTE21m8TrB+dLFB5BlivSQKJGyy8jQc9dV
/TZU6+7QtrfNzUbCo8eO7RbrwCQPJE9b3E6w8uDJIbhgwthHLOtBk51xEU0qohRN
k0ocqC66LjaWaHnr05A5iYDFxYYUWYuGQs4AMASThJskea2MYlYlw2N/k/eBxbij
Y07aCUqpSY8WzL6Qa/iFQpMz5VyKQ2bf4UOkrq8POze89M5y2WZY+LCfplkfCATf
tF0/MQVShFNk1Z790o4J/oNld7V9HDSpM/51AO9fV23PwbwICL6G
-----END CERTIFICATE-----
